; ModuleID = '31/335.c'
source_filename = "31/335.c"
target datalayout = "e-m:e-p270:32:32-p271:32:32-p272:64:64-i64:64-f80:128-n8:16:32:64-S128"
target triple = "x86_64-pc-linux-gnu"

%struct.stu = type { [50 x i8], %struct.stu* }

@p1 = common dso_local global %struct.stu* null, align 8
@head = common dso_local global %struct.stu* null, align 8
@p2 = common dso_local global %struct.stu* null, align 8
@.str = private unnamed_addr constant [4 x i8] c"end\00", align 1

; Function Attrs: noinline nounwind uwtable
define dso_local i32 @main() #0 {
  %1 = alloca i32, align 4
  store i32 0, i32* %1, align 4
  %2 = call noalias i8* @malloc(i64 64) #4
  %3 = bitcast i8* %2 to %struct.stu*
  store %struct.stu* %3, %struct.stu** @p1, align 8
  %4 = load %struct.stu*, %struct.stu** @p1, align 8
  store %struct.stu* %4, %struct.stu** @head, align 8
  br label %5

5:                                                ; preds = %13, %0
  %6 = load %struct.stu*, %struct.stu** @p1, align 8
  %7 = getelementptr inbounds %struct.stu, %struct.stu* %6, i32 0, i32 0
  %8 = getelementptr inbounds [50 x i8], [50 x i8]* %7, i64 0, i64 0
  %9 = call i32 (i8*, ...) bitcast (i32 (...)* @gets to i32 (i8*, ...)*)(i8* %8)
  %10 = sext i32 %9 to i64
  %11 = inttoptr i64 %10 to i8*
  %12 = icmp ne i8* %11, null
  br i1 %12, label %13, label %20

13:                                               ; preds = %5
  %14 = call noalias i8* @malloc(i64 64) #4
  %15 = bitcast i8* %14 to %struct.stu*
  store %struct.stu* %15, %struct.stu** @p2, align 8
  %16 = load %struct.stu*, %struct.stu** @p2, align 8
  %17 = load %struct.stu*, %struct.stu** @p1, align 8
  %18 = getelementptr inbounds %struct.stu, %struct.stu* %17, i32 0, i32 1
  store %struct.stu* %16, %struct.stu** %18, align 8
  %19 = load %struct.stu*, %struct.stu** @p2, align 8
  store %struct.stu* %19, %struct.stu** @p1, align 8
  br label %5

20:                                               ; preds = %5
  %21 = load %struct.stu*, %struct.stu** @p1, align 8
  %22 = getelementptr inbounds %struct.stu, %struct.stu* %21, i32 0, i32 1
  store %struct.stu* null, %struct.stu** %22, align 8
  %23 = load %struct.stu*, %struct.stu** @head, align 8
  %24 = call i32 @output(%struct.stu* %23)
  ret i32 0
}

; Function Attrs: nounwind
declare dso_local noalias i8* @malloc(i64) #1

declare dso_local i32 @gets(...) #2

; Function Attrs: noinline nounwind uwtable
define dso_local i32 @output(%struct.stu* %0) #0 {
  %2 = alloca %struct.stu*, align 8
  store %struct.stu* %0, %struct.stu** %2, align 8
  %3 = load %struct.stu*, %struct.stu** %2, align 8
  %4 = getelementptr inbounds %struct.stu, %struct.stu* %3, i32 0, i32 1
  %5 = load %struct.stu*, %struct.stu** %4, align 8
  %6 = getelementptr inbounds %struct.stu, %struct.stu* %5, i32 0, i32 0
  %7 = getelementptr inbounds [50 x i8], [50 x i8]* %6, i64 0, i64 0
  %8 = call i32 @strcmp(i8* %7, i8* getelementptr inbounds ([4 x i8], [4 x i8]* @.str, i64 0, i64 0)) #5
  %9 = icmp ne i32 %8, 0
  br i1 %9, label %10, label %15

10:                                               ; preds = %1
  %11 = load %struct.stu*, %struct.stu** %2, align 8
  %12 = getelementptr inbounds %struct.stu, %struct.stu* %11, i32 0, i32 1
  %13 = load %struct.stu*, %struct.stu** %12, align 8
  %14 = call i32 @output(%struct.stu* %13)
  br label %15

15:                                               ; preds = %10, %1
  %16 = load %struct.stu*, %struct.stu** %2, align 8
  %17 = getelementptr inbounds %struct.stu, %struct.stu* %16, i32 0, i32 0
  %18 = getelementptr inbounds [50 x i8], [50 x i8]* %17, i64 0, i64 0
  %19 = call i32 @puts(i8* %18)
  ret i32 0
}

; Function Attrs: nounwind readonly
declare dso_local i32 @strcmp(i8*, i8*) #3

declare dso_local i32 @puts(i8*) #2


!llvm.module.flags = !{!0}
!llvm.ident = !{!1}

!0 = !{i32 1, !"wchar_size", i32 4}
!1 = !{!"clang version 10.0.0-4ubuntu1 "}
