; ModuleID = 'source-C-CXX/30/335.c'
source_filename = "source-C-CXX/30/335.c"
target datalayout = "e-m:e-p270:32:32-p271:32:32-p272:64:64-i64:64-f80:128-n8:16:32:64-S128"
target triple = "x86_64-pc-linux-gnu"

%struct.stu = type { [50 x i8], %struct.stu* }

@p1 = dso_local local_unnamed_addr global %struct.stu* null, align 8
@head = dso_local local_unnamed_addr global %struct.stu* null, align 8
@p2 = dso_local local_unnamed_addr global %struct.stu* null, align 8
@.str = private unnamed_addr constant [4 x i8] c"end\00", align 1

; Function Attrs: nounwind sspstrong uwtable
define dso_local i32 @main() local_unnamed_addr #0 {
  %1 = tail call noalias align 16 dereferenceable_or_null(64) i8* @malloc(i64 64) #6
  store i8* %1, i8** bitcast (%struct.stu** @p1 to i8**), align 8, !tbaa !5
  store i8* %1, i8** bitcast (%struct.stu** @head to i8**), align 8, !tbaa !5
  %2 = bitcast i8* %1 to %struct.stu*
  %3 = getelementptr inbounds %struct.stu, %struct.stu* %2, i64 0, i32 0, i64 0
  %4 = tail call i32 (i8*, ...) bitcast (i32 (...)* @gets to i32 (i8*, ...)*)(i8* %3) #6
  %5 = icmp eq i32 %4, 0
  br i1 %5, label %15, label %6

6:                                                ; preds = %0, %6
  %7 = tail call noalias align 16 dereferenceable_or_null(64) i8* @malloc(i64 64) #6
  store i8* %7, i8** bitcast (%struct.stu** @p2 to i8**), align 8, !tbaa !5
  %8 = load %struct.stu*, %struct.stu** @p1, align 8, !tbaa !5
  %9 = getelementptr inbounds %struct.stu, %struct.stu* %8, i64 0, i32 1
  %10 = bitcast %struct.stu** %9 to i8**
  store i8* %7, i8** %10, align 8, !tbaa !9
  store i8* %7, i8** bitcast (%struct.stu** @p1 to i8**), align 8, !tbaa !5
  %11 = bitcast i8* %7 to %struct.stu*
  %12 = getelementptr inbounds %struct.stu, %struct.stu* %11, i64 0, i32 0, i64 0
  %13 = tail call i32 (i8*, ...) bitcast (i32 (...)* @gets to i32 (i8*, ...)*)(i8* %12) #6
  %14 = icmp eq i32 %13, 0
  br i1 %14, label %15, label %6, !llvm.loop !11

15:                                               ; preds = %6, %0
  %16 = load %struct.stu*, %struct.stu** @p1, align 8, !tbaa !5
  %17 = getelementptr inbounds %struct.stu, %struct.stu* %16, i64 0, i32 1
  store %struct.stu* null, %struct.stu** %17, align 8, !tbaa !9
  %18 = load %struct.stu*, %struct.stu** @head, align 8, !tbaa !5
  %19 = tail call i32 @output(%struct.stu* %18)
  ret i32 0
}

; Function Attrs: inaccessiblememonly mustprogress nofree nounwind willreturn
declare noalias noundef align 16 i8* @malloc(i64 noundef) local_unnamed_addr #1

declare i32 @gets(...) local_unnamed_addr #2

; Function Attrs: nofree nounwind sspstrong uwtable
define dso_local i32 @output(%struct.stu* nocapture readonly %0) local_unnamed_addr #3 {
  %2 = getelementptr inbounds %struct.stu, %struct.stu* %0, i64 0, i32 1
  %3 = load %struct.stu*, %struct.stu** %2, align 8, !tbaa !9
  %4 = getelementptr inbounds %struct.stu, %struct.stu* %3, i64 0, i32 0, i64 0
  %5 = tail call i32 @strcmp(i8* noundef nonnull dereferenceable(1) %4, i8* noundef nonnull dereferenceable(4) getelementptr inbounds ([4 x i8], [4 x i8]* @.str, i64 0, i64 0)) #7
  %6 = icmp eq i32 %5, 0
  br i1 %6, label %9, label %7

7:                                                ; preds = %1
  %8 = tail call i32 @output(%struct.stu* %3)
  br label %9

9:                                                ; preds = %7, %1
  %10 = getelementptr inbounds %struct.stu, %struct.stu* %0, i64 0, i32 0, i64 0
  %11 = tail call i32 @puts(i8* nonnull dereferenceable(1) %10)
  ret i32 0
}

; Function Attrs: argmemonly mustprogress nofree nounwind readonly willreturn
declare i32 @strcmp(i8* nocapture, i8* nocapture) local_unnamed_addr #4

; Function Attrs: nofree nounwind
declare noundef i32 @puts(i8* nocapture noundef readonly) local_unnamed_addr #5


!llvm.module.flags = !{!0, !1, !2, !3}
!llvm.ident = !{!4}

!0 = !{i32 1, !"wchar_size", i32 4}
!1 = !{i32 7, !"PIC Level", i32 2}
!2 = !{i32 7, !"PIE Level", i32 2}
!3 = !{i32 7, !"uwtable", i32 1}
!4 = !{!"clang version 13.0.0"}
!5 = !{!6, !6, i64 0}
!6 = !{!"any pointer", !7, i64 0}
!7 = !{!"omnipotent char", !8, i64 0}
!8 = !{!"Simple C/C++ TBAA"}
!9 = !{!10, !6, i64 56}
!10 = !{!"stu", !7, i64 0, !6, i64 56}
!11 = distinct !{!11, !12}
!12 = !{!"llvm.loop.mustprogress"}
